target datalayout = "e-m:e-p270:32:32-p271:32:32-p272:64:64-i64:64-i128:128-f80:128-n8:16:32:64-S128"
target triple = "x86_64-unknown-linux-gnu"

@.str.16 = private unnamed_addr constant [2 x i8] c"-\00", align 1
@.str.17 = private unnamed_addr constant [2 x i8] c"O\00", align 1
@.str.18 = private unnamed_addr constant [2 x i8] c" \00", align 1

; Function Attrs: mustprogress uwtable
define dso_local void @_ZNK4base13HistogramBase21WriteAsciiBucketGraphEddPNSt7__cxx1112basic_stringIcSt11char_traitsIcESaIcEEE(ptr noundef nonnull align 8 dereferenceable(44) %this, double noundef %current_size, double noundef %max_size, ptr noundef %output) #0 align 2 {
entry:
  %this.addr = alloca ptr, align 8
  %current_size.addr = alloca double, align 8
  %max_size.addr = alloca double, align 8
  %output.addr = alloca ptr, align 8
  %k_line_length = alloca i32, align 4
  %x_count = alloca i32, align 4
  %x_remainder = alloca i32, align 4
  store ptr %this, ptr %this.addr, align 8
  store double %current_size, ptr %current_size.addr, align 8
  store double %max_size, ptr %max_size.addr, align 8
  store ptr %output, ptr %output.addr, align 8
  store i32 72, ptr %k_line_length, align 4
  %0 = load double, ptr %current_size.addr, align 8
  %1 = load double, ptr %max_size.addr, align 8
  %div = fdiv double %0, %1
  %2 = call double @llvm.fmuladd.f64(double 7.200000e+01, double %div, double 5.000000e-01)
  %conv = fptosi double %2 to i32
  store i32 %conv, ptr %x_count, align 4
  %3 = load i32, ptr %x_count, align 4
  %sub = sub nsw i32 72, %3
  store i32 %sub, ptr %x_remainder, align 4
  br label %while.cond

while.cond:                                       ; preds = %while.body, %entry
  %4 = load i32, ptr %x_count, align 4
  %dec = add nsw i32 %4, -1
  store i32 %dec, ptr %x_count, align 4
  %cmp = icmp slt i32 0, %4
  br i1 %cmp, label %while.body, label %while.end

while.body:                                       ; preds = %while.cond
  %5 = load ptr, ptr %output.addr, align 8
  %call = call noundef nonnull align 8 dereferenceable(32) ptr @_ZNSt7__cxx1112basic_stringIcSt11char_traitsIcESaIcEE6appendEPKc(ptr noundef nonnull align 8 dereferenceable(32) %5, ptr noundef @.str.16)
  br label %while.cond, !llvm.loop !5

while.end:                                        ; preds = %while.cond
  %6 = load ptr, ptr %output.addr, align 8
  %call2 = call noundef nonnull align 8 dereferenceable(32) ptr @_ZNSt7__cxx1112basic_stringIcSt11char_traitsIcESaIcEE6appendEPKc(ptr noundef nonnull align 8 dereferenceable(32) %6, ptr noundef @.str.17)
  br label %while.cond3

while.cond3:                                      ; preds = %while.body6, %while.end
  %7 = load i32, ptr %x_remainder, align 4
  %dec4 = add nsw i32 %7, -1
  store i32 %dec4, ptr %x_remainder, align 4
  %cmp5 = icmp slt i32 0, %7
  br i1 %cmp5, label %while.body6, label %while.end8

while.body6:                                      ; preds = %while.cond3
  %8 = load ptr, ptr %output.addr, align 8
  %call7 = call noundef nonnull align 8 dereferenceable(32) ptr @_ZNSt7__cxx1112basic_stringIcSt11char_traitsIcESaIcEE6appendEPKc(ptr noundef nonnull align 8 dereferenceable(32) %8, ptr noundef @.str.18)
  br label %while.cond3, !llvm.loop !7

while.end8:                                       ; preds = %while.cond3
  ret void
}