; Function Attrs: mustprogress uwtable
define dso_local void @_ZNK4base13HistogramBase21WriteAsciiBucketGraphEddPNSt7__cxx1112basic_stringIcSt11char_traitsIcESaIcEEE(ptr nocapture noundef nonnull readnone align 8 dereferenceable(44) %this, double noundef %current_size, double noundef %max_size, ptr noundef %output) local_unnamed_addr #0 align 2 {
entry:
  %div = fdiv double %current_size, %max_size
  %0 = tail call double @llvm.fmuladd.f64(double %div, double 7.200000e+01, double 5.000000e-01)
  %conv = fptosi double %0 to i32
  %sub = sub nsw i32 72, %conv
  %cmp4 = icmp sgt i32 %conv, 0
  br i1 %cmp4, label %while.body, label %while.end.thread

while.end.thread:                                 ; preds = %entry
  %call28 = tail call noundef nonnull align 8 dereferenceable(32) ptr @_ZNSt7__cxx1112basic_stringIcSt11char_traitsIcESaIcEE6appendEPKc(ptr noundef nonnull align 8 dereferenceable(32) %output, ptr noundef nonnull @.str.17)
  br label %while.body6.preheader

while.body:                                       ; preds = %entry, %while.body
  %x_count.05 = phi i32 [ %dec, %while.body ], [ %conv, %entry ]
  %dec = add nsw i32 %x_count.05, -1
  %call = tail call noundef nonnull align 8 dereferenceable(32) ptr @_ZNSt7__cxx1112basic_stringIcSt11char_traitsIcESaIcEE6appendEPKc(ptr noundef nonnull align 8 dereferenceable(32) %output, ptr noundef nonnull @.str.16)
  %cmp = icmp ugt i32 %x_count.05, 1
  br i1 %cmp, label %while.body, label %while.end, !llvm.loop !5

while.end:                                        ; preds = %while.body
  %call2 = tail call noundef nonnull align 8 dereferenceable(32) ptr @_ZNSt7__cxx1112basic_stringIcSt11char_traitsIcESaIcEE6appendEPKc(ptr noundef nonnull align 8 dereferenceable(32) %output, ptr noundef nonnull @.str.17)
  %cmp56 = icmp slt i32 %conv, 72
  br i1 %cmp56, label %while.body6.preheader, label %while.end8

while.body6.preheader:                            ; preds = %while.end.thread, %while.end
  br label %while.body6

while.body6:                                      ; preds = %while.body6.preheader, %while.body6
  %x_remainder.07 = phi i32 [ %dec4, %while.body6 ], [ %sub, %while.body6.preheader ]
  %dec4 = add nsw i32 %x_remainder.07, -1
  %call7 = tail call noundef nonnull align 8 dereferenceable(32) ptr @_ZNSt7__cxx1112basic_stringIcSt11char_traitsIcESaIcEE6appendEPKc(ptr noundef nonnull align 8 dereferenceable(32) %output, ptr noundef nonnull @.str.18)
  %cmp5 = icmp sgt i32 %x_remainder.07, 1
  br i1 %cmp5, label %while.body6, label %while.end8, !llvm.loop !7

while.end8:                                       ; preds = %while.body6, %while.end
  ret void
}